target datalayout = "e-m:e-p270:32:32-p271:32:32-p272:64:64-i64:64-i128:128-f80:128-n8:16:32:64-S128"
target triple = "x86_64-pc-linux-gnu"

%struct.strbuf = type { i64, i64, ptr }
%struct.apply_state = type { ptr, %struct.lock_file, i32, i32, i32, i32, i32, i32, i32, i32, i32, i32, i32, i32, i32, i32, i32, i32, i32, ptr, ptr, i32, i32, ptr, ptr, i32, %struct.strbuf, i32, i32, i32, %struct.string_list, i32, i32, %struct.strset, %struct.strset, i32, i32, %struct.string_list, ptr, ptr, i32, i32, ptr, i32, i32, i32 }
%struct.lock_file = type { ptr }
%struct.strset = type { %struct.strmap }
%struct.strmap = type { %struct.hashmap, ptr, i8 }
%struct.hashmap = type { ptr, ptr, ptr, i32, i32, i32, i32, i8 }
%struct.string_list = type { ptr, i64, i64, i8, ptr }
%struct.option = type { i32, i32, ptr, ptr, ptr, ptr, i32, ptr, i64, ptr, i64, ptr }
%struct.string_list_item = type { ptr, ptr }

@.str.180 = private unnamed_addr constant [8 x i8] c"apply.c\00", align 1
@.str.270 = private unnamed_addr constant [41 x i8] c"option callback does not expect negation\00", align 1

; Function Attrs: nounwind uwtable
define internal void @add_name_limit(ptr noundef %0, ptr noundef %1, i32 noundef %2) #0 {
  %4 = alloca ptr, align 8
  %5 = alloca ptr, align 8
  %6 = alloca i32, align 4
  %7 = alloca ptr, align 8
  store ptr %0, ptr %4, align 8, !tbaa !4
  store ptr %1, ptr %5, align 8, !tbaa !11
  store i32 %2, ptr %6, align 4, !tbaa !39
  call void @llvm.lifetime.start.p0(i64 8, ptr %7) #12
  %8 = load ptr, ptr %4, align 8, !tbaa !4
  %9 = getelementptr inbounds nuw %struct.apply_state, ptr %8, i32 0, i32 30
  %10 = load ptr, ptr %5, align 8, !tbaa !11
  %11 = call ptr @string_list_append(ptr noundef %9, ptr noundef %10)
  store ptr %11, ptr %7, align 8, !tbaa !171
  %12 = load i32, ptr %6, align 4, !tbaa !39
  %13 = icmp ne i32 %12, 0
  %14 = select i1 %13, ptr null, ptr inttoptr (i64 1 to ptr)
  %15 = load ptr, ptr %7, align 8, !tbaa !171
  %16 = getelementptr inbounds nuw %struct.string_list_item, ptr %15, i32 0, i32 1
  store ptr %14, ptr %16, align 8, !tbaa !174
  call void @llvm.lifetime.end.p0(i64 8, ptr %7) #12
  ret void
}

; Function Attrs: nounwind uwtable
define internal i32 @apply_option_parse_include(ptr noundef %0, ptr noundef %1, i32 noundef %2) #0 {
  %4 = alloca ptr, align 8
  %5 = alloca ptr, align 8
  %6 = alloca i32, align 4
  %7 = alloca ptr, align 8
  store ptr %0, ptr %4, align 8, !tbaa !153
  store ptr %1, ptr %5, align 8, !tbaa !11
  store i32 %2, ptr %6, align 4, !tbaa !39
  call void @llvm.lifetime.start.p0(i64 8, ptr %7) #12
  %8 = load ptr, ptr %4, align 8, !tbaa !153
  %9 = getelementptr inbounds nuw %struct.option, ptr %8, i32 0, i32 3
  %10 = load ptr, ptr %9, align 8, !tbaa !143
  store ptr %10, ptr %7, align 8, !tbaa !4
  br label %11

11:                                               ; preds = %3
  %12 = load i32, ptr %6, align 4, !tbaa !39
  %13 = icmp ne i32 %12, 0
  br i1 %13, label %14, label %15

14:                                               ; preds = %11
  call void (ptr, i32, ptr, ...) @BUG_fl(ptr noundef @.str.180, i32 noundef 4904, ptr noundef @.str.270) #14
  unreachable

15:                                               ; preds = %11
  br label %16

16:                                               ; preds = %15
  br label %17

17:                                               ; preds = %16
  %18 = load ptr, ptr %7, align 8, !tbaa !4
  %19 = load ptr, ptr %5, align 8, !tbaa !11
  call void @add_name_limit(ptr noundef %18, ptr noundef %19, i32 noundef 0)
  %20 = load ptr, ptr %7, align 8, !tbaa !4
  %21 = getelementptr inbounds nuw %struct.apply_state, ptr %20, i32 0, i32 31
  store i32 1, ptr %21, align 8, !tbaa !155
  call void @llvm.lifetime.end.p0(i64 8, ptr %7) #12
  ret i32 0
}